target datalayout = "e-m:e-p270:32:32-p271:32:32-p272:64:64-i64:64-i128:128-f80:128-n8:16:32:64-S128"
target triple = "x86_64-pc-linux-gnu"

%class.symbol = type { ptr }
%class.ast = type { i32, i32, i32, i32 }
%class.decl_info = type <{ i32, i32, %class.vector.39, i8, [7 x i8] }>
%class.vector.39 = type { ptr }
%class.decl_info.base = type <{ i32, i32, %class.vector.39, i8 }>
%struct.func_decl_info = type <{ %class.decl_info.base, i16, [5 x i8] }>
%class.decl_plugin = type <{ ptr, ptr, i32, [4 x i8] }>
%class.basic_decl_plugin = type { %class.decl_plugin.base, ptr, ptr, ptr, ptr, ptr, ptr, ptr, ptr, %class.ptr_vector.41, %class.ptr_vector.41, %class.ptr_vector.41, ptr, ptr, ptr, ptr, ptr, ptr, ptr, ptr, ptr, ptr, ptr, ptr, ptr, ptr, ptr, ptr, ptr, ptr, %class.ptr_vector.41, %class.ptr_vector.41, %class.ptr_vector.41, %class.ptr_vector.41, %class.ptr_vector.41, ptr, ptr, ptr, ptr, ptr, ptr, %class.ptr_vector.41, ptr, ptr, ptr, ptr, ptr, ptr, ptr, ptr, ptr, %class.ptr_vector.41, %class.ptr_vector.41, %class.ptr_vector.41, %class.ptr_vector.41, ptr }
%class.decl_plugin.base = type <{ ptr, ptr, i32 }>
%class.ptr_vector.41 = type { %class.vector.42 }
%class.vector.42 = type { ptr }

@.str.26 = private unnamed_addr constant [3 x i8] c"=>\00", align 1
@_ZN14func_decl_infoC1EiijPK9parameter = hidden unnamed_addr alias void (ptr, i32, i32, i32, ptr), ptr @_ZN14func_decl_infoC2EiijPK9parameter

; Function Attrs: mustprogress nounwind uwtable
define linkonce_odr hidden noundef zeroext i1 @_ZNK14func_decl_info9is_skolemEv(ptr noundef nonnull align 8 dereferenceable(19) %0) #4 comdat align 2 {
  %2 = alloca ptr, align 8
  store ptr %0, ptr %2, align 8, !tbaa !106
  %3 = load ptr, ptr %2, align 8
  %4 = getelementptr inbounds nuw %struct.func_decl_info, ptr %3, i32 0, i32 1
  %5 = load i16, ptr %4, align 1
  %6 = lshr i16 %5, 8
  %7 = and i16 %6, 1
  %8 = trunc i16 %7 to i1
  ret i1 %8
}

; Function Attrs: mustprogress nounwind uwtable
define linkonce_odr hidden noundef zeroext i1 @_ZNK14func_decl_info13is_idempotentEv(ptr noundef nonnull align 8 dereferenceable(19) %0) #4 comdat align 2 {
  %2 = alloca ptr, align 8
  store ptr %0, ptr %2, align 8, !tbaa !106
  %3 = load ptr, ptr %2, align 8
  %4 = getelementptr inbounds nuw %struct.func_decl_info, ptr %3, i32 0, i32 1
  %5 = load i16, ptr %4, align 1
  %6 = lshr i16 %5, 7
  %7 = and i16 %6, 1
  %8 = trunc i16 %7 to i1
  ret i1 %8
}

; Function Attrs: mustprogress nounwind uwtable
define linkonce_odr hidden noundef zeroext i1 @_ZNK14func_decl_info12is_injectiveEv(ptr noundef nonnull align 8 dereferenceable(19) %0) #4 comdat align 2 {
  %2 = alloca ptr, align 8
  store ptr %0, ptr %2, align 8, !tbaa !106
  %3 = load ptr, ptr %2, align 8
  %4 = getelementptr inbounds nuw %struct.func_decl_info, ptr %3, i32 0, i32 1
  %5 = load i16, ptr %4, align 1
  %6 = lshr i16 %5, 6
  %7 = and i16 %6, 1
  %8 = trunc i16 %7 to i1
  ret i1 %8
}

; Function Attrs: mustprogress nounwind uwtable
define linkonce_odr hidden noundef zeroext i1 @_ZNK14func_decl_info11is_pairwiseEv(ptr noundef nonnull align 8 dereferenceable(19) %0) #4 comdat align 2 {
  %2 = alloca ptr, align 8
  store ptr %0, ptr %2, align 8, !tbaa !106
  %3 = load ptr, ptr %2, align 8
  %4 = getelementptr inbounds nuw %struct.func_decl_info, ptr %3, i32 0, i32 1
  %5 = load i16, ptr %4, align 1
  %6 = lshr i16 %5, 5
  %7 = and i16 %6, 1
  %8 = trunc i16 %7 to i1
  ret i1 %8
}

; Function Attrs: mustprogress nounwind uwtable
define linkonce_odr hidden noundef zeroext i1 @_ZNK14func_decl_info12is_chainableEv(ptr noundef nonnull align 8 dereferenceable(19) %0) #4 comdat align 2 {
  %2 = alloca ptr, align 8
  store ptr %0, ptr %2, align 8, !tbaa !106
  %3 = load ptr, ptr %2, align 8
  %4 = getelementptr inbounds nuw %struct.func_decl_info, ptr %3, i32 0, i32 1
  %5 = load i16, ptr %4, align 1
  %6 = lshr i16 %5, 4
  %7 = and i16 %6, 1
  %8 = trunc i16 %7 to i1
  ret i1 %8
}

; Function Attrs: mustprogress nounwind uwtable
define linkonce_odr hidden noundef zeroext i1 @_ZNK14func_decl_info14is_commutativeEv(ptr noundef nonnull align 8 dereferenceable(19) %0) #4 comdat align 2 {
  %2 = alloca ptr, align 8
  store ptr %0, ptr %2, align 8, !tbaa !106
  %3 = load ptr, ptr %2, align 8
  %4 = getelementptr inbounds nuw %struct.func_decl_info, ptr %3, i32 0, i32 1
  %5 = load i16, ptr %4, align 1
  %6 = lshr i16 %5, 3
  %7 = and i16 %6, 1
  %8 = trunc i16 %7 to i1
  ret i1 %8
}

; Function Attrs: mustprogress nounwind uwtable
define linkonce_odr hidden noundef zeroext i1 @_ZNK14func_decl_info20is_right_associativeEv(ptr noundef nonnull align 8 dereferenceable(19) %0) #4 comdat align 2 {
  %2 = alloca ptr, align 8
  store ptr %0, ptr %2, align 8, !tbaa !106
  %3 = load ptr, ptr %2, align 8
  %4 = getelementptr inbounds nuw %struct.func_decl_info, ptr %3, i32 0, i32 1
  %5 = load i16, ptr %4, align 1
  %6 = lshr i16 %5, 1
  %7 = and i16 %6, 1
  %8 = trunc i16 %7 to i1
  ret i1 %8
}

; Function Attrs: mustprogress nounwind uwtable
define linkonce_odr hidden noundef zeroext i1 @_ZNK14func_decl_info19is_left_associativeEv(ptr noundef nonnull align 8 dereferenceable(19) %0) #4 comdat align 2 {
  %2 = alloca ptr, align 8
  store ptr %0, ptr %2, align 8, !tbaa !106
  %3 = load ptr, ptr %2, align 8
  %4 = getelementptr inbounds nuw %struct.func_decl_info, ptr %3, i32 0, i32 1
  %5 = load i16, ptr %4, align 1
  %6 = and i16 %5, 1
  %7 = trunc i16 %6 to i1
  ret i1 %7
}

; Function Attrs: mustprogress nounwind uwtable
define linkonce_odr hidden noundef i32 @_ZNK9decl_info13get_family_idEv(ptr noundef nonnull align 8 dereferenceable(17) %0) #4 comdat align 2 {
  %2 = alloca ptr, align 8
  store ptr %0, ptr %2, align 8, !tbaa !80
  %3 = load ptr, ptr %2, align 8
  %4 = getelementptr inbounds nuw %class.decl_info, ptr %3, i32 0, i32 0
  %5 = load i32, ptr %4, align 8, !tbaa !82
  ret i32 %5
}

; Function Attrs: mustprogress nounwind uwtable
define linkonce_odr hidden void @_ZN3ast7inc_refEv(ptr noundef nonnull align 4 dereferenceable(16) %0) #4 comdat align 2 {
  %2 = alloca ptr, align 8
  store ptr %0, ptr %2, align 8, !tbaa !23
  %3 = load ptr, ptr %2, align 8
  %4 = getelementptr inbounds nuw %class.ast, ptr %3, i32 0, i32 2
  %5 = load i32, ptr %4, align 4, !tbaa !403
  %6 = add i32 %5, 1
  store i32 %6, ptr %4, align 4, !tbaa !403
  ret void
}

; Function Attrs: mustprogress nounwind uwtable
define linkonce_odr hidden noundef zeroext i1 @_ZNK14func_decl_info7is_nullEv(ptr noundef nonnull align 8 dereferenceable(19) %0) #4 comdat align 2 {
  %2 = alloca ptr, align 8
  store ptr %0, ptr %2, align 8, !tbaa !106
  %3 = load ptr, ptr %2, align 8
  %4 = call noundef i32 @_ZNK9decl_info13get_family_idEv(ptr noundef nonnull align 8 dereferenceable(17) %3)
  %5 = icmp eq i32 %4, -1
  br i1 %5, label %6, label %23

6:                                                ; preds = %1
  %7 = call noundef zeroext i1 @_ZNK14func_decl_info19is_left_associativeEv(ptr noundef nonnull align 8 dereferenceable(19) %3)
  br i1 %7, label %23, label %8

8:                                                ; preds = %6
  %9 = call noundef zeroext i1 @_ZNK14func_decl_info20is_right_associativeEv(ptr noundef nonnull align 8 dereferenceable(19) %3)
  br i1 %9, label %23, label %10

10:                                               ; preds = %8
  %11 = call noundef zeroext i1 @_ZNK14func_decl_info14is_commutativeEv(ptr noundef nonnull align 8 dereferenceable(19) %3)
  br i1 %11, label %23, label %12

12:                                               ; preds = %10
  %13 = call noundef zeroext i1 @_ZNK14func_decl_info12is_chainableEv(ptr noundef nonnull align 8 dereferenceable(19) %3)
  br i1 %13, label %23, label %14

14:                                               ; preds = %12
  %15 = call noundef zeroext i1 @_ZNK14func_decl_info11is_pairwiseEv(ptr noundef nonnull align 8 dereferenceable(19) %3)
  br i1 %15, label %23, label %16

16:                                               ; preds = %14
  %17 = call noundef zeroext i1 @_ZNK14func_decl_info12is_injectiveEv(ptr noundef nonnull align 8 dereferenceable(19) %3)
  br i1 %17, label %23, label %18

18:                                               ; preds = %16
  %19 = call noundef zeroext i1 @_ZNK14func_decl_info13is_idempotentEv(ptr noundef nonnull align 8 dereferenceable(19) %3)
  br i1 %19, label %23, label %20

20:                                               ; preds = %18
  %21 = call noundef zeroext i1 @_ZNK14func_decl_info9is_skolemEv(ptr noundef nonnull align 8 dereferenceable(19) %3)
  %22 = xor i1 %21, true
  br label %23

23:                                               ; preds = %20, %18, %16, %14, %12, %10, %8, %6, %1
  %24 = phi i1 [ false, %18 ], [ false, %16 ], [ false, %14 ], [ false, %12 ], [ false, %10 ], [ false, %8 ], [ false, %6 ], [ false, %1 ], [ %22, %20 ]
  ret i1 %24
}

; Function Attrs: mustprogress uwtable
define linkonce_odr hidden void @_ZN11ast_manager7inc_refEP3ast(ptr noundef nonnull align 8 dereferenceable(976) %0, ptr noundef %1) #6 comdat align 2 {
  %3 = alloca ptr, align 8
  %4 = alloca ptr, align 8
  store ptr %0, ptr %3, align 8, !tbaa !21
  store ptr %1, ptr %4, align 8, !tbaa !23
  %5 = load ptr, ptr %4, align 8, !tbaa !23
  %6 = icmp ne ptr %5, null
  br i1 %6, label %7, label %9

7:                                                ; preds = %2
  %8 = load ptr, ptr %4, align 8, !tbaa !23
  call void @_ZN3ast7inc_refEv(ptr noundef nonnull align 4 dereferenceable(16) %8)
  br label %9

9:                                                ; preds = %7, %2
  ret void
}

; Function Attrs: mustprogress uwtable
define linkonce_odr hidden noundef ptr @_ZN11ast_manager12mk_func_declERK6symboljPKP4sortS4_RK14func_decl_info(ptr noundef nonnull align 8 dereferenceable(976) %0, ptr noundef nonnull align 8 dereferenceable(8) %1, i32 noundef %2, ptr noundef %3, ptr noundef %4, ptr noundef nonnull align 8 dereferenceable(19) %5) #6 comdat align 2 {
  %7 = alloca ptr, align 8
  %8 = alloca ptr, align 8
  %9 = alloca ptr, align 8
  %10 = alloca i32, align 4
  %11 = alloca ptr, align 8
  %12 = alloca ptr, align 8
  %13 = alloca ptr, align 8
  store ptr %0, ptr %8, align 8, !tbaa !21
  store ptr %1, ptr %9, align 8, !tbaa !42
  store i32 %2, ptr %10, align 4, !tbaa !25
  store ptr %3, ptr %11, align 8, !tbaa !112
  store ptr %4, ptr %12, align 8, !tbaa !114
  store ptr %5, ptr %13, align 8, !tbaa !106
  %14 = load ptr, ptr %8, align 8
  %15 = load ptr, ptr %13, align 8, !tbaa !106
  %16 = call noundef zeroext i1 @_ZNK14func_decl_info7is_nullEv(ptr noundef nonnull align 8 dereferenceable(19) %15)
  br i1 %16, label %17, label %23

17:                                               ; preds = %6
  %18 = load ptr, ptr %9, align 8, !tbaa !42
  %19 = load i32, ptr %10, align 4, !tbaa !25
  %20 = load ptr, ptr %11, align 8, !tbaa !112
  %21 = load ptr, ptr %12, align 8, !tbaa !114
  %22 = call noundef ptr @_ZN11ast_manager12mk_func_declERK6symboljPKP4sortS4_P14func_decl_info(ptr noundef nonnull align 8 dereferenceable(976) %14, ptr noundef nonnull align 8 dereferenceable(8) %18, i32 noundef %19, ptr noundef %20, ptr noundef %21, ptr noundef null)
  store ptr %22, ptr %7, align 8
  br label %30

23:                                               ; preds = %6
  %24 = load ptr, ptr %9, align 8, !tbaa !42
  %25 = load i32, ptr %10, align 4, !tbaa !25
  %26 = load ptr, ptr %11, align 8, !tbaa !112
  %27 = load ptr, ptr %12, align 8, !tbaa !114
  %28 = load ptr, ptr %13, align 8, !tbaa !106
  %29 = call noundef ptr @_ZN11ast_manager12mk_func_declERK6symboljPKP4sortS4_P14func_decl_info(ptr noundef nonnull align 8 dereferenceable(976) %14, ptr noundef nonnull align 8 dereferenceable(8) %24, i32 noundef %25, ptr noundef %26, ptr noundef %27, ptr noundef %28)
  store ptr %29, ptr %7, align 8
  br label %30

30:                                               ; preds = %23, %17
  %31 = load ptr, ptr %7, align 8
  ret ptr %31
}

; Function Attrs: mustprogress nounwind uwtable
define linkonce_odr hidden void @_ZN14func_decl_info21set_right_associativeEb(ptr noundef nonnull align 8 dereferenceable(19) %0, i1 noundef zeroext %1) #4 comdat align 2 {
  %3 = alloca ptr, align 8
  %4 = alloca i8, align 1
  store ptr %0, ptr %3, align 8, !tbaa !106
  %5 = zext i1 %1 to i8
  store i8 %5, ptr %4, align 1, !tbaa !31
  %6 = load ptr, ptr %3, align 8
  %7 = load i8, ptr %4, align 1, !tbaa !31, !range !35, !noundef !36
  %8 = trunc i8 %7 to i1
  %9 = getelementptr inbounds nuw %struct.func_decl_info, ptr %6, i32 0, i32 1
  %10 = zext i1 %8 to i16
  %11 = load i16, ptr %9, align 1
  %12 = shl i16 %10, 1
  %13 = and i16 %11, -3
  %14 = or i16 %13, %12
  store i16 %14, ptr %9, align 1
  ret void
}

; Function Attrs: mustprogress uwtable
define hidden noundef ptr @_ZN17basic_decl_plugin15mk_implies_declEv(ptr noundef nonnull align 8 dereferenceable(464) %0) #6 align 2 personality ptr @__gxx_personality_v0 {
  %2 = alloca ptr, align 8
  %3 = alloca [2 x ptr], align 16
  %4 = alloca %struct.func_decl_info, align 8
  %5 = alloca ptr, align 8
  %6 = alloca i32, align 4
  %7 = alloca ptr, align 8
  %8 = alloca %class.symbol, align 8
  store ptr %0, ptr %2, align 8, !tbaa !241
  %9 = load ptr, ptr %2, align 8
  call void @llvm.lifetime.start.p0(i64 16, ptr %3) #3
  %10 = getelementptr inbounds nuw %class.basic_decl_plugin, ptr %9, i32 0, i32 1
  %11 = load ptr, ptr %10, align 8, !tbaa !251
  store ptr %11, ptr %3, align 8, !tbaa !114
  %12 = getelementptr inbounds ptr, ptr %3, i64 1
  %13 = getelementptr inbounds nuw %class.basic_decl_plugin, ptr %9, i32 0, i32 1
  %14 = load ptr, ptr %13, align 8, !tbaa !251
  store ptr %14, ptr %12, align 8, !tbaa !114
  call void @llvm.lifetime.start.p0(i64 24, ptr %4) #3
  %15 = getelementptr inbounds nuw %class.decl_plugin, ptr %9, i32 0, i32 2
  %16 = load i32, ptr %15, align 8, !tbaa !183
  call void @_ZN14func_decl_infoC1EiijPK9parameter(ptr noundef nonnull align 8 dereferenceable(19) %4, i32 noundef %16, i32 noundef 9, i32 noundef 0, ptr noundef null)
  invoke void @_ZN14func_decl_info21set_right_associativeEb(ptr noundef nonnull align 8 dereferenceable(19) %4, i1 noundef zeroext true)
          to label %17 unwind label %31

17:                                               ; preds = %1
  call void @llvm.lifetime.start.p0(i64 8, ptr %7) #3
  %18 = getelementptr inbounds nuw %class.decl_plugin, ptr %9, i32 0, i32 1
  %19 = load ptr, ptr %18, align 8, !tbaa !181
  call void @llvm.lifetime.start.p0(i64 8, ptr %8) #3
  invoke void @_ZN6symbolC1EPKc(ptr noundef nonnull align 8 dereferenceable(8) %8, ptr noundef @.str.26)
          to label %20 unwind label %35

20:                                               ; preds = %17
  %21 = getelementptr inbounds [2 x ptr], ptr %3, i64 0, i64 0
  %22 = getelementptr inbounds nuw %class.basic_decl_plugin, ptr %9, i32 0, i32 1
  %23 = load ptr, ptr %22, align 8, !tbaa !251
  %24 = invoke noundef ptr @_ZN11ast_manager12mk_func_declERK6symboljPKP4sortS4_RK14func_decl_info(ptr noundef nonnull align 8 dereferenceable(976) %19, ptr noundef nonnull align 8 dereferenceable(8) %8, i32 noundef 2, ptr noundef %21, ptr noundef %23, ptr noundef nonnull align 8 dereferenceable(19) %4)
          to label %25 unwind label %35

25:                                               ; preds = %20
  call void @llvm.lifetime.end.p0(i64 8, ptr %8) #3
  store ptr %24, ptr %7, align 8, !tbaa !110
  %26 = getelementptr inbounds nuw %class.decl_plugin, ptr %9, i32 0, i32 1
  %27 = load ptr, ptr %26, align 8, !tbaa !181
  %28 = load ptr, ptr %7, align 8, !tbaa !110
  invoke void @_ZN11ast_manager7inc_refEP3ast(ptr noundef nonnull align 8 dereferenceable(976) %27, ptr noundef %28)
          to label %29 unwind label %39

29:                                               ; preds = %25
  %30 = load ptr, ptr %7, align 8, !tbaa !110
  call void @llvm.lifetime.end.p0(i64 8, ptr %7) #3
  call void @_ZN9decl_infoD2Ev(ptr noundef nonnull align 8 dereferenceable(19) %4) #3
  call void @llvm.lifetime.end.p0(i64 24, ptr %4) #3
  call void @llvm.lifetime.end.p0(i64 16, ptr %3) #3
  ret ptr %30

31:                                               ; preds = %1
  %32 = landingpad { ptr, i32 }
          cleanup
  %33 = extractvalue { ptr, i32 } %32, 0
  store ptr %33, ptr %5, align 8
  %34 = extractvalue { ptr, i32 } %32, 1
  store i32 %34, ptr %6, align 4
  br label %44

35:                                               ; preds = %20, %17
  %36 = landingpad { ptr, i32 }
          cleanup
  %37 = extractvalue { ptr, i32 } %36, 0
  store ptr %37, ptr %5, align 8
  %38 = extractvalue { ptr, i32 } %36, 1
  store i32 %38, ptr %6, align 4
  call void @llvm.lifetime.end.p0(i64 8, ptr %8) #3
  br label %43

39:                                               ; preds = %25
  %40 = landingpad { ptr, i32 }
          cleanup
  %41 = extractvalue { ptr, i32 } %40, 0
  store ptr %41, ptr %5, align 8
  %42 = extractvalue { ptr, i32 } %40, 1
  store i32 %42, ptr %6, align 4
  br label %43

43:                                               ; preds = %39, %35
  call void @llvm.lifetime.end.p0(i64 8, ptr %7) #3
  br label %44

44:                                               ; preds = %43, %31
  call void @_ZN9decl_infoD2Ev(ptr noundef nonnull align 8 dereferenceable(19) %4) #3
  call void @llvm.lifetime.end.p0(i64 24, ptr %4) #3
  call void @llvm.lifetime.end.p0(i64 16, ptr %3) #3
  br label %45

45:                                               ; preds = %44
  %46 = load ptr, ptr %5, align 8
  %47 = load i32, ptr %6, align 4
  %48 = insertvalue { ptr, i32 } poison, ptr %46, 0
  %49 = insertvalue { ptr, i32 } %48, i32 %47, 1
  resume { ptr, i32 } %49
}