; Function Attrs: mustprogress uwtable
define hidden noundef ptr @_ZN17basic_decl_plugin15mk_implies_declEv(ptr noundef nonnull readonly align 8 captures(none) dereferenceable(464) %0) local_unnamed_addr #7 align 2 personality ptr @__gxx_personality_v0 {
  %2 = alloca [2 x ptr], align 16
  %3 = alloca %struct.func_decl_info, align 8
  %4 = alloca %class.symbol, align 8
  call void @llvm.lifetime.start.p0(i64 16, ptr nonnull %2) #38
  %5 = getelementptr inbounds nuw i8, ptr %0, i64 24
  %6 = load ptr, ptr %5, align 8, !tbaa !226
  store ptr %6, ptr %2, align 16, !tbaa !142
  %7 = getelementptr inbounds nuw i8, ptr %2, i64 8
  store ptr %6, ptr %7, align 8, !tbaa !142
  call void @llvm.lifetime.start.p0(i64 24, ptr nonnull %3) #38
  %8 = getelementptr inbounds nuw i8, ptr %0, i64 16
  %9 = load i32, ptr %8, align 8, !tbaa !211
  store i32 %9, ptr %3, align 8, !tbaa !96
  %10 = getelementptr inbounds nuw i8, ptr %3, i64 4
  store i32 9, ptr %10, align 4, !tbaa !100
  %11 = getelementptr inbounds nuw i8, ptr %3, i64 8
  store ptr null, ptr %11, align 8, !tbaa !101
  %12 = getelementptr inbounds nuw i8, ptr %3, i64 16
  store i8 0, ptr %12, align 8, !tbaa !103
  %13 = getelementptr inbounds nuw i8, ptr %3, i64 17
  store i16 2, ptr %13, align 1
  %14 = getelementptr inbounds nuw i8, ptr %0, i64 8
  %15 = load ptr, ptr %14, align 8, !tbaa !163
  call void @llvm.lifetime.start.p0(i64 8, ptr nonnull %4) #38
  invoke void @_ZN6symbolC1EPKc(ptr noundef nonnull align 8 dereferenceable(8) %4, ptr noundef nonnull @.str.26)
          to label %_ZNK14func_decl_info7is_nullEv.exit.thread.i unwind label %32

_ZNK14func_decl_info7is_nullEv.exit.thread.i:     ; preds = %1
  %16 = load ptr, ptr %5, align 8, !tbaa !226
  %17 = invoke noundef ptr @_ZN11ast_manager12mk_func_declERK6symboljPKP4sortS4_P14func_decl_info(ptr noundef nonnull align 8 dereferenceable(976) %15, ptr noundef nonnull align 8 dereferenceable(8) %4, i32 noundef 2, ptr noundef nonnull %2, ptr noundef %16, ptr noundef nonnull %3)
          to label %_ZN11ast_manager12mk_func_declERK6symboljPKP4sortS4_RK14func_decl_info.exit unwind label %32

_ZN11ast_manager12mk_func_declERK6symboljPKP4sortS4_RK14func_decl_info.exit: ; preds = %_ZNK14func_decl_info7is_nullEv.exit.thread.i
  call void @llvm.lifetime.end.p0(i64 8, ptr nonnull %4) #38
  %.not.i = icmp eq ptr %17, null
  br i1 %.not.i, label %_ZN11ast_manager7inc_refEP3ast.exit, label %18

18:                                               ; preds = %_ZN11ast_manager12mk_func_declERK6symboljPKP4sortS4_RK14func_decl_info.exit
  %19 = getelementptr inbounds nuw i8, ptr %17, i64 8
  %20 = load i32, ptr %19, align 4, !tbaa !31
  %21 = add i32 %20, 1
  store i32 %21, ptr %19, align 4, !tbaa !31
  br label %_ZN11ast_manager7inc_refEP3ast.exit

_ZN11ast_manager7inc_refEP3ast.exit:              ; preds = %18, %_ZN11ast_manager12mk_func_declERK6symboljPKP4sortS4_RK14func_decl_info.exit
  %22 = load ptr, ptr %11, align 8, !tbaa !101
  %.not.i.i.i = icmp eq ptr %22, null
  br i1 %.not.i.i.i, label %_ZN9decl_infoD2Ev.exit, label %_ZNK6vectorI9parameterLb1EjE4sizeEv.exit.i.i.i.i

_ZNK6vectorI9parameterLb1EjE4sizeEv.exit.i.i.i.i: ; preds = %_ZN11ast_manager7inc_refEP3ast.exit
  %23 = getelementptr inbounds i8, ptr %22, i64 -4
  %24 = load i32, ptr %23, align 4, !tbaa !24
  %.not5.i.i.i.i.i.i.i = icmp eq i32 %24, 0
  br i1 %.not5.i.i.i.i.i.i.i, label %_ZN6vectorI9parameterLb1EjE16destroy_elementsEv.exit.i.i.i, label %.lr.ph.i.i.i.i.i.i.i

.lr.ph.i.i.i.i.i.i.i:                             ; preds = %_ZNK6vectorI9parameterLb1EjE4sizeEv.exit.i.i.i.i, %.lr.ph.i.i.i.i.i.i.i
  %.07.i.i.i.i.i.i.i = phi i32 [ %26, %.lr.ph.i.i.i.i.i.i.i ], [ %24, %_ZNK6vectorI9parameterLb1EjE4sizeEv.exit.i.i.i.i ]
  %.046.i.i.i.i.i.i.i = phi ptr [ %25, %.lr.ph.i.i.i.i.i.i.i ], [ %22, %_ZNK6vectorI9parameterLb1EjE4sizeEv.exit.i.i.i.i ]
  call void @_ZN9parameterD2Ev(ptr noundef nonnull align 8 dereferenceable(16) %.046.i.i.i.i.i.i.i) #38
  %25 = getelementptr inbounds nuw i8, ptr %.046.i.i.i.i.i.i.i, i64 16
  %26 = add i32 %.07.i.i.i.i.i.i.i, -1
  %.not.i.i.i.i.i.i.i = icmp eq i32 %26, 0
  br i1 %.not.i.i.i.i.i.i.i, label %_ZN6vectorI9parameterLb1EjE16destroy_elementsEv.exit.loopexit.i.i.i, label %.lr.ph.i.i.i.i.i.i.i, !llvm.loop !228

_ZN6vectorI9parameterLb1EjE16destroy_elementsEv.exit.loopexit.i.i.i: ; preds = %.lr.ph.i.i.i.i.i.i.i
  %.pre.i.i.i = load ptr, ptr %11, align 8, !tbaa !101
  br label %_ZN6vectorI9parameterLb1EjE16destroy_elementsEv.exit.i.i.i

_ZN6vectorI9parameterLb1EjE16destroy_elementsEv.exit.i.i.i: ; preds = %_ZN6vectorI9parameterLb1EjE16destroy_elementsEv.exit.loopexit.i.i.i, %_ZNK6vectorI9parameterLb1EjE4sizeEv.exit.i.i.i.i
  %27 = phi ptr [ %.pre.i.i.i, %_ZN6vectorI9parameterLb1EjE16destroy_elementsEv.exit.loopexit.i.i.i ], [ %22, %_ZNK6vectorI9parameterLb1EjE4sizeEv.exit.i.i.i.i ]
  %28 = getelementptr inbounds i8, ptr %27, i64 -8
  invoke void @_ZN6memory10deallocateEPv(ptr noundef nonnull %28)
          to label %_ZN9decl_infoD2Ev.exit unwind label %29

29:                                               ; preds = %_ZN6vectorI9parameterLb1EjE16destroy_elementsEv.exit.i.i.i
  %30 = landingpad { ptr, i32 }
          catch ptr null
  %31 = extractvalue { ptr, i32 } %30, 0
  call void @__clang_call_terminate(ptr %31) #37
  unreachable

_ZN9decl_infoD2Ev.exit:                           ; preds = %_ZN11ast_manager7inc_refEP3ast.exit, %_ZN6vectorI9parameterLb1EjE16destroy_elementsEv.exit.i.i.i
  call void @llvm.lifetime.end.p0(i64 24, ptr nonnull %3) #38
  call void @llvm.lifetime.end.p0(i64 16, ptr nonnull %2) #38
  ret ptr %17

32:                                               ; preds = %_ZNK14func_decl_info7is_nullEv.exit.thread.i, %1
  %33 = landingpad { ptr, i32 }
          cleanup
  call void @llvm.lifetime.end.p0(i64 8, ptr nonnull %4) #38
  call void @_ZN9decl_infoD2Ev(ptr noundef nonnull align 8 dereferenceable(19) %3) #38
  call void @llvm.lifetime.end.p0(i64 24, ptr nonnull %3) #38
  call void @llvm.lifetime.end.p0(i64 16, ptr nonnull %2) #38
  resume { ptr, i32 } %33
}